; Function Attrs: mustprogress nounwind uwtable
define hidden void @_ZNK18VM_RedefineClasses14print_on_errorEP12outputStream(ptr noundef nonnull align 8 dereferenceable(192) %0, ptr noundef %1) unnamed_addr #0 align 2 {
  tail call void @_ZNK12VM_Operation14print_on_errorEP12outputStream(ptr noundef nonnull align 8 dereferenceable(16) %0, ptr noundef %1) #19
  %3 = getelementptr inbounds i8, ptr %0, i64 16
  %4 = load ptr, ptr %3, align 8
  %.not = icmp eq ptr %4, null
  br i1 %.not, label %_ZN12ResourceMarkD2Ev.exit, label %5

5:                                                ; preds = %2
  %6 = tail call align 8 ptr @llvm.threadlocal.address.p0(ptr align 8 @_ZN6Thread12_thr_currentE)
  %7 = load ptr, ptr %6, align 8
  %8 = getelementptr inbounds i8, ptr %7, i64 800
  %9 = load ptr, ptr %8, align 8
  %10 = getelementptr inbounds i8, ptr %9, i64 24
  %11 = load ptr, ptr %10, align 8
  %12 = getelementptr inbounds i8, ptr %9, i64 32
  %13 = load ptr, ptr %12, align 8
  %14 = getelementptr inbounds i8, ptr %9, i64 40
  %15 = load ptr, ptr %14, align 8
  %16 = getelementptr inbounds i8, ptr %9, i64 8
  %17 = load i64, ptr %16, align 8
  %18 = tail call noundef ptr @_ZNK5Klass13external_nameEv(ptr noundef nonnull align 8 dereferenceable(196) %4) #19
  tail call void (ptr, ptr, ...) @_ZN12outputStream8print_crEPKcz(ptr noundef nonnull align 8 dereferenceable(56) %1, ptr noundef nonnull @.str.189, ptr noundef %18) #19
  %19 = load ptr, ptr %11, align 8
  %.not.i.i.i.i = icmp eq ptr %19, null
  br i1 %.not.i.i.i.i, label %21, label %20

20:                                               ; preds = %5
  tail call void @_ZN5Arena17set_size_in_bytesEm(ptr noundef nonnull align 8 dereferenceable(48) %9, i64 noundef %17) #19
  tail call void @_ZN5Chunk9next_chopEPS_(ptr noundef nonnull %11) #19
  br label %21

21:                                               ; preds = %20, %5
  %22 = load ptr, ptr %12, align 8
  %.not8.i.i.i.i = icmp eq ptr %22, %13
  br i1 %.not8.i.i.i.i, label %_ZN12ResourceMarkD2Ev.exit, label %23

23:                                               ; preds = %21
  store ptr %11, ptr %10, align 8
  store ptr %13, ptr %12, align 8
  store ptr %15, ptr %14, align 8
  br label %_ZN12ResourceMarkD2Ev.exit

_ZN12ResourceMarkD2Ev.exit:                       ; preds = %23, %21, %2
  ret void
}